target datalayout = "e-m:e-p270:32:32-p271:32:32-p272:64:64-i64:64-i128:128-f80:128-n8:16:32:64-S128"
target triple = "x86_64-pc-linux-gnu"

%"class.icu_77::StringPiece" = type <{ ptr, i32, [4 x i8] }>
%"class.icu_77::UObject" = type { ptr }
%"class.icu_77::(anonymous namespace)::CategoriesSink" = type <{ %"class.icu_77::ResourceSink", ptr, ptr, ptr, i32, [4 x i8] }>
%"class.icu_77::ResourceSink" = type { %"class.icu_77::UObject" }
%"class.icu_77::ResourceArray" = type <{ ptr, ptr, i32, [4 x i8] }>
%"class.icu_77::ResourceTable" = type <{ ptr, ptr, ptr, ptr, i32, [4 x i8] }>

; Function Attrs: mustprogress nounwind uwtable
define linkonce_odr noundef i32 @_ZNK6icu_7713ResourceTable7getSizeEv(ptr noundef nonnull align 8 dereferenceable(37) %0) #0 comdat align 2 {
  %2 = alloca ptr, align 8
  store ptr %0, ptr %2, align 8, !tbaa !174
  %3 = load ptr, ptr %2, align 8
  %4 = getelementptr inbounds nuw %"class.icu_77::ResourceTable", ptr %3, i32 0, i32 4
  %5 = load i32, ptr %4, align 8, !tbaa !176
  ret i32 %5
}

; Function Attrs: mustprogress nounwind uwtable
define linkonce_odr noundef i32 @_ZNK6icu_7713ResourceArray7getSizeEv(ptr noundef nonnull align 8 dereferenceable(21) %0) #0 comdat align 2 {
  %2 = alloca ptr, align 8
  store ptr %0, ptr %2, align 8, !tbaa !168
  %3 = load ptr, ptr %2, align 8
  %4 = getelementptr inbounds nuw %"class.icu_77::ResourceArray", ptr %3, i32 0, i32 2
  %5 = load i32, ptr %4, align 8, !tbaa !170
  ret i32 %5
}

; Function Attrs: inlinehint mustprogress nounwind uwtable
define internal noundef signext i8 @_ZL9U_FAILURE10UErrorCode(i32 noundef %0) #2 {
  %2 = alloca i32, align 4
  store i32 %0, ptr %2, align 4, !tbaa !15
  %3 = load i32, ptr %2, align 4, !tbaa !15
  %4 = icmp sgt i32 %3, 0
  %5 = zext i1 %4 to i8
  ret i8 %5
}

; Function Attrs: mustprogress uwtable
define internal void @_ZN6icu_7712_GLOBAL__N_114CategoriesSink3putEPKcRNS_13ResourceValueEaR10UErrorCode(ptr noundef nonnull align 8 dereferenceable(36) %0, ptr noundef %1, ptr noundef nonnull align 8 dereferenceable(8) %2, i8 noundef signext %3, ptr noundef nonnull align 4 dereferenceable(4) %4) unnamed_addr #1 align 2 {
  %6 = alloca ptr, align 8
  %7 = alloca ptr, align 8
  %8 = alloca ptr, align 8
  %9 = alloca i8, align 1
  %10 = alloca ptr, align 8
  %11 = alloca %"class.icu_77::ResourceArray", align 8
  %12 = alloca i32, align 4
  %13 = alloca i32, align 4
  %14 = alloca %"class.icu_77::ResourceTable", align 8
  %15 = alloca ptr, align 8
  %16 = alloca i32, align 4
  %17 = alloca %"class.icu_77::StringPiece", align 8
  store ptr %0, ptr %6, align 8, !tbaa !136
  store ptr %1, ptr %7, align 8, !tbaa !17
  store ptr %2, ptr %8, align 8, !tbaa !161
  store i8 %3, ptr %9, align 1, !tbaa !36
  store ptr %4, ptr %10, align 8, !tbaa !22
  %18 = load ptr, ptr %6, align 8
  call void @llvm.lifetime.start.p0(i64 24, ptr %11) #14
  %19 = load ptr, ptr %8, align 8, !tbaa !161
  %20 = load ptr, ptr %10, align 8, !tbaa !22
  %21 = load ptr, ptr %19, align 8, !tbaa !140
  %22 = getelementptr inbounds ptr, ptr %21, i64 10
  %23 = load ptr, ptr %22, align 8
  call void %23(ptr dead_on_unwind writable sret(%"class.icu_77::ResourceArray") align 8 %11, ptr noundef nonnull align 8 dereferenceable(8) %19, ptr noundef nonnull align 4 dereferenceable(4) %20)
  %24 = load ptr, ptr %10, align 8, !tbaa !22
  %25 = load i32, ptr %24, align 4, !tbaa !15
  %26 = call noundef signext i8 @_ZL9U_FAILURE10UErrorCode(i32 noundef %25)
  %27 = icmp ne i8 %26, 0
  br i1 %27, label %28, label %29

28:                                               ; preds = %5
  store i32 1, ptr %12, align 4
  br label %101

29:                                               ; preds = %5
  %30 = getelementptr inbounds nuw %"class.icu_77::(anonymous namespace)::CategoriesSink", ptr %18, i32 0, i32 4
  %31 = load i32, ptr %30, align 8, !tbaa !145
  %32 = call noundef i32 @_ZNK6icu_7713ResourceArray7getSizeEv(ptr noundef nonnull align 8 dereferenceable(21) %11)
  %33 = add nsw i32 %31, %32
  %34 = getelementptr inbounds nuw %"class.icu_77::(anonymous namespace)::CategoriesSink", ptr %18, i32 0, i32 2
  %35 = load ptr, ptr %34, align 8, !tbaa !163
  %36 = load i32, ptr %35, align 4, !tbaa !14
  %37 = icmp sgt i32 %33, %36
  br i1 %37, label %38, label %40

38:                                               ; preds = %29
  %39 = load ptr, ptr %10, align 8, !tbaa !22
  store i32 8, ptr %39, align 4, !tbaa !15
  store i32 1, ptr %12, align 4
  br label %101

40:                                               ; preds = %29
  call void @llvm.lifetime.start.p0(i64 4, ptr %13) #14
  store i32 0, ptr %13, align 4, !tbaa !14
  br label %41

41:                                               ; preds = %95, %40
  %42 = load i32, ptr %13, align 4, !tbaa !14
  %43 = load ptr, ptr %8, align 8, !tbaa !161
  %44 = call noundef signext i8 @_ZNK6icu_7713ResourceArray8getValueEiRNS_13ResourceValueE(ptr noundef nonnull align 8 dereferenceable(21) %11, i32 noundef %42, ptr noundef nonnull align 8 dereferenceable(8) %43)
  %45 = icmp ne i8 %44, 0
  br i1 %45, label %47, label %46

46:                                               ; preds = %41
  store i32 2, ptr %12, align 4
  br label %98

47:                                               ; preds = %41
  call void @llvm.lifetime.start.p0(i64 40, ptr %14) #14
  %48 = load ptr, ptr %8, align 8, !tbaa !161
  %49 = load ptr, ptr %10, align 8, !tbaa !22
  %50 = load ptr, ptr %48, align 8, !tbaa !140
  %51 = getelementptr inbounds ptr, ptr %50, i64 11
  %52 = load ptr, ptr %51, align 8
  call void %52(ptr dead_on_unwind writable sret(%"class.icu_77::ResourceTable") align 8 %14, ptr noundef nonnull align 8 dereferenceable(8) %48, ptr noundef nonnull align 4 dereferenceable(4) %49)
  %53 = load ptr, ptr %10, align 8, !tbaa !22
  %54 = load i32, ptr %53, align 4, !tbaa !15
  %55 = call noundef signext i8 @_ZL9U_FAILURE10UErrorCode(i32 noundef %54)
  %56 = icmp ne i8 %55, 0
  br i1 %56, label %57, label %58

57:                                               ; preds = %47
  store i32 1, ptr %12, align 4
  br label %92

58:                                               ; preds = %47
  %59 = call noundef i32 @_ZNK6icu_7713ResourceTable7getSizeEv(ptr noundef nonnull align 8 dereferenceable(37) %14)
  %60 = icmp ne i32 %59, 1
  br i1 %60, label %61, label %63

61:                                               ; preds = %58
  %62 = load ptr, ptr %10, align 8, !tbaa !22
  store i32 3, ptr %62, align 4, !tbaa !15
  store i32 1, ptr %12, align 4
  br label %92

63:                                               ; preds = %58
  call void @llvm.lifetime.start.p0(i64 8, ptr %15) #14
  %64 = load ptr, ptr %8, align 8, !tbaa !161
  %65 = call noundef signext i8 @_ZNK6icu_7713ResourceTable14getKeyAndValueEiRPKcRNS_13ResourceValueE(ptr noundef nonnull align 8 dereferenceable(37) %14, i32 noundef 0, ptr noundef nonnull align 8 dereferenceable(8) %15, ptr noundef nonnull align 8 dereferenceable(8) %64)
  call void @llvm.lifetime.start.p0(i64 4, ptr %16) #14
  %66 = load ptr, ptr %8, align 8, !tbaa !161
  %67 = load ptr, ptr %10, align 8, !tbaa !22
  %68 = load ptr, ptr %66, align 8, !tbaa !140
  %69 = getelementptr inbounds ptr, ptr %68, i64 4
  %70 = load ptr, ptr %69, align 8
  %71 = call noundef ptr %70(ptr noundef nonnull align 8 dereferenceable(8) %66, ptr noundef nonnull align 4 dereferenceable(4) %16, ptr noundef nonnull align 4 dereferenceable(4) %67)
  %72 = getelementptr inbounds nuw %"class.icu_77::(anonymous namespace)::CategoriesSink", ptr %18, i32 0, i32 1
  %73 = load ptr, ptr %72, align 8, !tbaa !142
  %74 = getelementptr inbounds nuw %"class.icu_77::(anonymous namespace)::CategoriesSink", ptr %18, i32 0, i32 4
  %75 = load i32, ptr %74, align 8, !tbaa !145
  %76 = sext i32 %75 to i64
  %77 = getelementptr inbounds ptr, ptr %73, i64 %76
  store ptr %71, ptr %77, align 8, !tbaa !30
  %78 = getelementptr inbounds nuw %"class.icu_77::(anonymous namespace)::CategoriesSink", ptr %18, i32 0, i32 3
  %79 = load ptr, ptr %78, align 8, !tbaa !164
  %80 = load ptr, ptr %15, align 8, !tbaa !17
  call void @_ZN6icu_7711StringPieceC1EPKc(ptr noundef nonnull align 8 dereferenceable(12) %17, ptr noundef %80)
  %81 = getelementptr inbounds nuw %"class.icu_77::(anonymous namespace)::CategoriesSink", ptr %18, i32 0, i32 4
  %82 = load i32, ptr %81, align 8, !tbaa !145
  %83 = load ptr, ptr %10, align 8, !tbaa !22
  %84 = getelementptr inbounds nuw { ptr, i32 }, ptr %17, i32 0, i32 0
  %85 = load ptr, ptr %84, align 8
  %86 = getelementptr inbounds nuw { ptr, i32 }, ptr %17, i32 0, i32 1
  %87 = load i32, ptr %86, align 8
  %88 = call noundef nonnull align 8 dereferenceable(56) ptr @_ZN6icu_7716BytesTrieBuilder3addENS_11StringPieceEiR10UErrorCode(ptr noundef nonnull align 8 dereferenceable(56) %79, ptr %85, i32 %87, i32 noundef %82, ptr noundef nonnull align 4 dereferenceable(4) %83)
  %89 = getelementptr inbounds nuw %"class.icu_77::(anonymous namespace)::CategoriesSink", ptr %18, i32 0, i32 4
  %90 = load i32, ptr %89, align 8, !tbaa !145
  %91 = add nsw i32 %90, 1
  store i32 %91, ptr %89, align 8, !tbaa !145
  call void @llvm.lifetime.end.p0(i64 4, ptr %16) #14
  call void @llvm.lifetime.end.p0(i64 8, ptr %15) #14
  store i32 0, ptr %12, align 4
  br label %92

92:                                               ; preds = %63, %61, %57
  call void @llvm.lifetime.end.p0(i64 40, ptr %14) #14
  %93 = load i32, ptr %12, align 4
  switch i32 %93, label %98 [
    i32 0, label %94
  ]

94:                                               ; preds = %92
  br label %95

95:                                               ; preds = %94
  %96 = load i32, ptr %13, align 4, !tbaa !14
  %97 = add nsw i32 %96, 1
  store i32 %97, ptr %13, align 4, !tbaa !14
  br label %41, !llvm.loop !165

98:                                               ; preds = %92, %46
  call void @llvm.lifetime.end.p0(i64 4, ptr %13) #14
  %99 = load i32, ptr %12, align 4
  switch i32 %99, label %101 [
    i32 2, label %100
  ]

100:                                              ; preds = %98
  store i32 0, ptr %12, align 4
  br label %101

101:                                              ; preds = %100, %98, %38, %28
  call void @llvm.lifetime.end.p0(i64 24, ptr %11) #14
  %102 = load i32, ptr %12, align 4
  switch i32 %102, label %104 [
    i32 0, label %103
    i32 1, label %103
  ]

103:                                              ; preds = %101, %101
  ret void

104:                                              ; preds = %101
  unreachable
}