; Function Attrs: mustprogress uwtable
define internal void @_ZN6icu_7712_GLOBAL__N_114CategoriesSink3putEPKcRNS_13ResourceValueEaR10UErrorCode(ptr noundef nonnull align 8 captures(none) dereferenceable(36) %0, ptr readnone captures(none) %1, ptr noundef nonnull align 8 dereferenceable(8) %2, i8 signext %3, ptr noundef nonnull align 4 dereferenceable(4) %4) unnamed_addr #1 align 2 {
  %6 = alloca %"class.icu_77::ResourceArray", align 8
  %7 = alloca %"class.icu_77::ResourceTable", align 8
  %8 = alloca ptr, align 8
  %9 = alloca i32, align 4
  %10 = alloca %"class.icu_77::StringPiece", align 8
  call void @llvm.lifetime.start.p0(i64 24, ptr nonnull %6) #18
  %11 = load ptr, ptr %2, align 8, !tbaa !53
  %12 = getelementptr inbounds nuw i8, ptr %11, i64 80
  %13 = load ptr, ptr %12, align 8
  call void %13(ptr dead_on_unwind nonnull writable sret(%"class.icu_77::ResourceArray") align 8 %6, ptr noundef nonnull align 8 dereferenceable(8) %2, ptr noundef nonnull align 4 dereferenceable(4) %4)
  %14 = load i32, ptr %4, align 4, !tbaa !13
  %15 = icmp slt i32 %14, 1
  br i1 %15, label %16, label %.loopexit

16:                                               ; preds = %5
  %17 = getelementptr inbounds nuw i8, ptr %0, i64 32
  %18 = load i32, ptr %17, align 8, !tbaa !63
  %19 = getelementptr inbounds nuw i8, ptr %6, i64 16
  %20 = load i32, ptr %19, align 8, !tbaa !124
  %21 = add nsw i32 %20, %18
  %22 = getelementptr inbounds nuw i8, ptr %0, i64 16
  %23 = load ptr, ptr %22, align 8, !tbaa !128
  %24 = load i32, ptr %23, align 4, !tbaa !12
  %25 = icmp sgt i32 %21, %24
  br i1 %25, label %31, label %.preheader

.preheader:                                       ; preds = %16
  %26 = call noundef signext i8 @_ZNK6icu_7713ResourceArray8getValueEiRNS_13ResourceValueE(ptr noundef nonnull align 8 dereferenceable(21) %6, i32 noundef 0, ptr noundef nonnull align 8 dereferenceable(8) %2)
  %.not1922 = icmp eq i8 %26, 0
  br i1 %.not1922, label %.loopexit, label %.lr.ph

.lr.ph:                                           ; preds = %.preheader
  %27 = getelementptr inbounds nuw i8, ptr %7, i64 32
  %28 = getelementptr inbounds nuw i8, ptr %0, i64 8
  %29 = getelementptr inbounds nuw i8, ptr %0, i64 24
  %30 = getelementptr inbounds nuw i8, ptr %10, i64 8
  br label %32

31:                                               ; preds = %16
  store i32 8, ptr %4, align 4, !tbaa !13
  br label %.loopexit

32:                                               ; preds = %.lr.ph, %41
  %.023 = phi i32 [ 0, %.lr.ph ], [ %59, %41 ]
  call void @llvm.lifetime.start.p0(i64 40, ptr nonnull %7) #18
  %33 = load ptr, ptr %2, align 8, !tbaa !53
  %34 = getelementptr inbounds nuw i8, ptr %33, i64 88
  %35 = load ptr, ptr %34, align 8
  call void %35(ptr dead_on_unwind nonnull writable sret(%"class.icu_77::ResourceTable") align 8 %7, ptr noundef nonnull align 8 dereferenceable(8) %2, ptr noundef nonnull align 4 dereferenceable(4) %4)
  %36 = load i32, ptr %4, align 4, !tbaa !13
  %37 = icmp slt i32 %36, 1
  br i1 %37, label %38, label %.critedge

38:                                               ; preds = %32
  %39 = load i32, ptr %27, align 8, !tbaa !129
  %.not21 = icmp eq i32 %39, 1
  br i1 %.not21, label %41, label %40

40:                                               ; preds = %38
  store i32 3, ptr %4, align 4, !tbaa !13
  br label %.critedge

41:                                               ; preds = %38
  call void @llvm.lifetime.start.p0(i64 8, ptr nonnull %8) #18
  %42 = call noundef signext i8 @_ZNK6icu_7713ResourceTable14getKeyAndValueEiRPKcRNS_13ResourceValueE(ptr noundef nonnull align 8 dereferenceable(37) %7, i32 noundef 0, ptr noundef nonnull align 8 dereferenceable(8) %8, ptr noundef nonnull align 8 dereferenceable(8) %2)
  call void @llvm.lifetime.start.p0(i64 4, ptr nonnull %9) #18
  %43 = load ptr, ptr %2, align 8, !tbaa !53
  %44 = getelementptr inbounds nuw i8, ptr %43, i64 32
  %45 = load ptr, ptr %44, align 8
  %46 = call noundef ptr %45(ptr noundef nonnull align 8 dereferenceable(8) %2, ptr noundef nonnull align 4 dereferenceable(4) %9, ptr noundef nonnull align 4 dereferenceable(4) %4)
  %47 = load ptr, ptr %28, align 8, !tbaa !55
  %48 = load i32, ptr %17, align 8, !tbaa !63
  %49 = sext i32 %48 to i64
  %50 = getelementptr inbounds ptr, ptr %47, i64 %49
  store ptr %46, ptr %50, align 8, !tbaa !43
  %51 = load ptr, ptr %29, align 8, !tbaa !131
  %52 = load ptr, ptr %8, align 8, !tbaa !22
  call void @_ZN6icu_7711StringPieceC1EPKc(ptr noundef nonnull align 8 dereferenceable(12) %10, ptr noundef %52)
  %53 = load i32, ptr %17, align 8, !tbaa !63
  %54 = load ptr, ptr %10, align 8
  %55 = load i32, ptr %30, align 8
  %56 = call noundef nonnull align 8 dereferenceable(56) ptr @_ZN6icu_7716BytesTrieBuilder3addENS_11StringPieceEiR10UErrorCode(ptr noundef nonnull align 8 dereferenceable(56) %51, ptr %54, i32 %55, i32 noundef %53, ptr noundef nonnull align 4 dereferenceable(4) %4)
  %57 = load i32, ptr %17, align 8, !tbaa !63
  %58 = add nsw i32 %57, 1
  store i32 %58, ptr %17, align 8, !tbaa !63
  call void @llvm.lifetime.end.p0(i64 4, ptr nonnull %9) #18
  call void @llvm.lifetime.end.p0(i64 8, ptr nonnull %8) #18
  call void @llvm.lifetime.end.p0(i64 40, ptr nonnull %7) #18
  %59 = add nuw nsw i32 %.023, 1
  %60 = call noundef signext i8 @_ZNK6icu_7713ResourceArray8getValueEiRNS_13ResourceValueE(ptr noundef nonnull align 8 dereferenceable(21) %6, i32 noundef %59, ptr noundef nonnull align 8 dereferenceable(8) %2)
  %.not19 = icmp eq i8 %60, 0
  br i1 %.not19, label %.loopexit, label %32, !llvm.loop !132

.critedge:                                        ; preds = %32, %40
  call void @llvm.lifetime.end.p0(i64 40, ptr nonnull %7) #18
  br label %.loopexit

.loopexit:                                        ; preds = %41, %.preheader, %.critedge, %5, %31
  call void @llvm.lifetime.end.p0(i64 24, ptr nonnull %6) #18
  ret void
}